; Function Attrs: mustprogress uwtable
define hidden noundef zeroext i1 @_ZN16push_app_ite_cfg9is_targetEP9func_decljPKP4expr(ptr noundef nonnull readonly align 8 captures(none) dereferenceable(17) %0, ptr noundef readonly captures(none) %1, i32 noundef %2, ptr noundef readonly captures(none) %3) unnamed_addr #3 align 2 {
  %5 = getelementptr inbounds nuw i8, ptr %0, i64 8
  %6 = getelementptr inbounds nuw i8, ptr %1, i64 24
  %7 = load ptr, ptr %6, align 8, !tbaa !3
  %8 = icmp eq ptr %7, null
  br i1 %8, label %.preheader, label %_ZNK4decl13get_family_idEv.exit.thread.i.i

_ZNK4decl13get_family_idEv.exit.thread.i.i:       ; preds = %4
  %9 = load i32, ptr %7, align 8, !tbaa !13
  %10 = icmp eq i32 %9, 0
  br i1 %10, label %11, label %.preheader

11:                                               ; preds = %_ZNK4decl13get_family_idEv.exit.thread.i.i
  %12 = getelementptr inbounds nuw i8, ptr %7, i64 4
  %13 = load i32, ptr %12, align 4, !tbaa !18
  %14 = icmp eq i32 %13, 4
  %.not16 = icmp eq i32 %2, 0
  %or.cond = or i1 %14, %.not16
  br i1 %or.cond, label %._crit_edge, label %.lr.ph

.preheader:                                       ; preds = %_ZNK4decl13get_family_idEv.exit.thread.i.i, %4
  %.not16.old = icmp eq i32 %2, 0
  br i1 %.not16.old, label %._crit_edge, label %.lr.ph

.lr.ph:                                           ; preds = %11, %.preheader
  %15 = getelementptr inbounds nuw i8, ptr %0, i64 16
  %wide.trip.count = zext i32 %2 to i64
  br label %16

16:                                               ; preds = %.lr.ph, %_ZNK11ast_manager6is_iteEPK4expr.exit.thread
  %indvars.iv = phi i64 [ 0, %.lr.ph ], [ %indvars.iv.next, %_ZNK11ast_manager6is_iteEPK4expr.exit.thread ]
  %.01317 = phi i8 [ 0, %.lr.ph ], [ %.1, %_ZNK11ast_manager6is_iteEPK4expr.exit.thread ]
  %17 = getelementptr inbounds nuw ptr, ptr %3, i64 %indvars.iv
  %18 = load ptr, ptr %17, align 8, !tbaa !19
  %19 = getelementptr inbounds nuw i8, ptr %18, i64 4
  %20 = load i32, ptr %19, align 4
  %21 = and i32 %20, 65535
  %22 = icmp eq i32 %21, 0
  br i1 %22, label %23, label %_ZNK11ast_manager6is_iteEPK4expr.exit.thread

23:                                               ; preds = %16
  %24 = getelementptr inbounds nuw i8, ptr %18, i64 16
  %25 = load ptr, ptr %24, align 8, !tbaa !21
  %26 = getelementptr inbounds nuw i8, ptr %25, i64 24
  %27 = load ptr, ptr %26, align 8, !tbaa !3
  %.not.i.i.i.i = icmp eq ptr %27, null
  br i1 %.not.i.i.i.i, label %_ZNK11ast_manager6is_iteEPK4expr.exit.thread, label %_ZNK11ast_manager6is_iteEPK4expr.exit

_ZNK11ast_manager6is_iteEPK4expr.exit:            ; preds = %23
  %28 = load i32, ptr %27, align 8, !tbaa !13
  %29 = icmp eq i32 %28, 0
  %30 = getelementptr inbounds nuw i8, ptr %27, i64 4
  %31 = load i32, ptr %30, align 4
  %32 = icmp eq i32 %31, 4
  %33 = select i1 %29, i1 %32, i1 false
  br i1 %33, label %34, label %_ZNK11ast_manager6is_iteEPK4expr.exit.thread

34:                                               ; preds = %_ZNK11ast_manager6is_iteEPK4expr.exit
  %35 = load ptr, ptr %5, align 8, !tbaa !26
  %36 = tail call noundef zeroext i1 @_ZNK11ast_manager7is_boolEPK4expr(ptr noundef nonnull align 8 dereferenceable(976) %35, ptr noundef nonnull %18)
  br i1 %36, label %_ZNK11ast_manager6is_iteEPK4expr.exit.thread, label %37

37:                                               ; preds = %34
  %38 = trunc nuw i8 %.01317 to i1
  br i1 %38, label %39, label %_ZNK11ast_manager6is_iteEPK4expr.exit.thread

39:                                               ; preds = %37
  %40 = load i8, ptr %15, align 8, !tbaa !29, !range !30, !noundef !31
  %41 = trunc nuw i8 %40 to i1
  br i1 %41, label %._crit_edge.loopexit, label %_ZNK11ast_manager6is_iteEPK4expr.exit.thread

_ZNK11ast_manager6is_iteEPK4expr.exit.thread:     ; preds = %23, %16, %37, %_ZNK11ast_manager6is_iteEPK4expr.exit, %34, %39
  %.1 = phi i8 [ %.01317, %34 ], [ 1, %39 ], [ %.01317, %_ZNK11ast_manager6is_iteEPK4expr.exit ], [ 1, %37 ], [ %.01317, %16 ], [ %.01317, %23 ]
  %indvars.iv.next = add nuw nsw i64 %indvars.iv, 1
  %exitcond.not = icmp eq i64 %indvars.iv.next, %wide.trip.count
  br i1 %exitcond.not, label %._crit_edge.loopexit, label %16, !llvm.loop !32

._crit_edge.loopexit:                             ; preds = %39, %_ZNK11ast_manager6is_iteEPK4expr.exit.thread
  %.013.lcssa.ph = phi i8 [ %.1, %_ZNK11ast_manager6is_iteEPK4expr.exit.thread ], [ 1, %39 ]
  %.not.lcssa.ph = phi i1 [ true, %_ZNK11ast_manager6is_iteEPK4expr.exit.thread ], [ false, %39 ]
  %42 = trunc nuw i8 %.013.lcssa.ph to i1
  %43 = select i1 %.not.lcssa.ph, i1 %42, i1 false
  br label %._crit_edge

._crit_edge:                                      ; preds = %.preheader, %._crit_edge.loopexit, %11
  %.014 = phi i1 [ false, %11 ], [ false, %.preheader ], [ %43, %._crit_edge.loopexit ]
  ret i1 %.014
}